target datalayout = "e-m:e-p270:32:32-p271:32:32-p272:64:64-i64:64-i128:128-f80:128-n8:16:32:64-S128"
target triple = "x86_64-pc-linux-gnu"

%struct.token_response_msg_t = type { ptr }

@.str.2 = private unnamed_addr constant [22 x i8] c"slurm_protocol_pack.c\00", align 1
@__func__._unpack_token_response_msg = private unnamed_addr constant [27 x i8] c"_unpack_token_response_msg\00", align 1

; Function Attrs: nounwind uwtable
define internal i32 @_unpack_token_response_msg(ptr noundef %0, ptr noundef %1, i16 noundef zeroext %2) #0 {
  %4 = alloca i32, align 4
  %5 = alloca ptr, align 8
  %6 = alloca ptr, align 8
  %7 = alloca i16, align 2
  %8 = alloca ptr, align 8
  %9 = alloca i32, align 4
  %10 = alloca i32, align 4
  store ptr %0, ptr %5, align 8
  store ptr %1, ptr %6, align 8
  store i16 %2, ptr %7, align 2
  call void @llvm.lifetime.start.p0(i64 8, ptr %8) #6
  %11 = call ptr @slurm_xcalloc(i64 noundef 1, i64 noundef 8, i1 noundef zeroext true, i1 noundef zeroext false, ptr noundef @.str.2, i32 noundef 10772, ptr noundef @__func__._unpack_token_response_msg)
  store ptr %11, ptr %8, align 8
  %12 = load ptr, ptr %8, align 8
  %13 = load ptr, ptr %5, align 8
  store ptr %12, ptr %13, align 8
  %14 = load i16, ptr %7, align 2
  %15 = zext i16 %14 to i32
  %16 = icmp sge i32 %15, 10240
  br i1 %16, label %17, label %31

17:                                               ; preds = %3
  br label %18

18:                                               ; preds = %17
  call void @llvm.lifetime.start.p0(i64 4, ptr %9) #6
  %19 = load ptr, ptr %8, align 8
  %20 = getelementptr inbounds nuw %struct.token_response_msg_t, ptr %19, i32 0, i32 0
  %21 = load ptr, ptr %6, align 8
  %22 = call i32 @unpackstr_xmalloc_chooser(ptr noundef %20, ptr noundef %9, ptr noundef %21)
  %23 = icmp ne i32 %22, 0
  br i1 %23, label %24, label %25

24:                                               ; preds = %18
  store i32 4, ptr %10, align 4
  br label %26

25:                                               ; preds = %18
  store i32 0, ptr %10, align 4
  br label %26

26:                                               ; preds = %24, %25
  call void @llvm.lifetime.end.p0(i64 4, ptr %9) #6
  %27 = load i32, ptr %10, align 4
  switch i32 %27, label %35 [
    i32 0, label %28
    i32 4, label %32
  ]

28:                                               ; preds = %26
  br label %29

29:                                               ; preds = %28
  br label %30

30:                                               ; preds = %29
  br label %31

31:                                               ; preds = %30, %3
  store i32 0, ptr %4, align 4
  store i32 1, ptr %10, align 4
  br label %35

32:                                               ; preds = %26
  %33 = load ptr, ptr %5, align 8
  store ptr null, ptr %33, align 8
  %34 = load ptr, ptr %8, align 8
  call void @slurm_free_token_response_msg(ptr noundef %34)
  store i32 -1, ptr %4, align 4
  store i32 1, ptr %10, align 4
  br label %35

35:                                               ; preds = %32, %31, %26
  call void @llvm.lifetime.end.p0(i64 8, ptr %8) #6
  %36 = load i32, ptr %4, align 4
  ret i32 %36
}