; Function Attrs: nounwind uwtable
define internal fastcc range(i32 -1, 1) i32 @_unpack_token_response_msg(ptr noundef writeonly captures(none) initializes((0, 8)) %0, ptr noundef %1, i16 noundef zeroext %2) unnamed_addr #0 {
  %4 = alloca i32, align 4
  %5 = tail call ptr @slurm_xcalloc(i64 noundef 1, i64 noundef 8, i1 noundef zeroext true, i1 noundef zeroext false, ptr noundef nonnull @.str.2, i32 noundef 10772, ptr noundef nonnull @__func__._unpack_token_response_msg) #7
  store ptr %5, ptr %0, align 8
  %6 = icmp ugt i16 %2, 10239
  br i1 %6, label %7, label %10

7:                                                ; preds = %3
  call void @llvm.lifetime.start.p0(i64 4, ptr nonnull %4) #7
  %8 = call i32 @unpackstr_xmalloc_chooser(ptr noundef %5, ptr noundef nonnull %4, ptr noundef %1) #7
  %.not = icmp eq i32 %8, 0
  call void @llvm.lifetime.end.p0(i64 4, ptr nonnull %4) #7
  br i1 %.not, label %10, label %9

9:                                                ; preds = %7
  store ptr null, ptr %0, align 8
  call void @slurm_free_token_response_msg(ptr noundef %5) #7
  br label %10

10:                                               ; preds = %7, %3, %9
  %.08 = phi i32 [ -1, %9 ], [ 0, %7 ], [ 0, %3 ]
  ret i32 %.08
}